target datalayout = "e-m:e-p270:32:32-p271:32:32-p272:64:64-i64:64-i128:128-f80:128-n8:16:32:64-S128"
target triple = "x86_64-pc-linux-gnu"

%struct.rb_io = type { i64, ptr, i32, i32, i32, i32, i64, ptr, %struct.rb_io_internal_buffer, %struct.rb_io_internal_buffer, i64, %struct.rb_io_encoding, ptr, %struct.rb_io_internal_buffer, ptr, i64, i32, i32, i64, i64, i64 }
%struct.rb_io_encoding = type { ptr, ptr, i32, i64 }
%struct.rb_io_internal_buffer = type <{ ptr, i32, i32, i32 }>
%struct.RFile = type { %struct.RBasic, ptr }
%struct.RBasic = type { i64, i64 }

@rb_eIOError = dso_local global i64 0, align 8
@.str.4 = private unnamed_addr constant [21 x i8] c"uninitialized stream\00", align 1

; Function Attrs: nounwind sspstrong uwtable
define dso_local void @rb_io_check_initialized(ptr noundef %0) #0 {
  %2 = alloca ptr, align 8
  store ptr %0, ptr %2, align 8, !tbaa !7
  %3 = load ptr, ptr %2, align 8, !tbaa !7
  %4 = icmp ne ptr %3, null
  br i1 %4, label %7, label %5

5:                                                ; preds = %1
  %6 = load i64, ptr @rb_eIOError, align 8, !tbaa !32
  call void (i64, ptr, ...) @rb_raise(i64 noundef %6, ptr noundef @.str.4) #31
  unreachable

7:                                                ; preds = %1
  ret void
}

; Function Attrs: nounwind sspstrong uwtable
define internal ptr @rb_io_get_fptr(i64 noundef %0) #0 {
  %2 = alloca i64, align 8
  %3 = alloca ptr, align 8
  store i64 %0, ptr %2, align 8, !tbaa !32
  call void @llvm.lifetime.start.p0(i64 8, ptr %3) #28
  %4 = load i64, ptr %2, align 8, !tbaa !32
  %5 = inttoptr i64 %4 to ptr
  %6 = getelementptr inbounds nuw %struct.RFile, ptr %5, i32 0, i32 1
  %7 = load ptr, ptr %6, align 8, !tbaa !34
  store ptr %7, ptr %3, align 8, !tbaa !7
  %8 = load ptr, ptr %3, align 8, !tbaa !7
  call void @rb_io_check_initialized(ptr noundef %8)
  %9 = load ptr, ptr %3, align 8, !tbaa !7
  call void @llvm.lifetime.end.p0(i64 8, ptr %3) #28
  ret ptr %9
}

; Function Attrs: nounwind sspstrong uwtable
define dso_local i64 @rb_io_timeout(i64 noundef %0) #0 {
  %2 = alloca i64, align 8
  %3 = alloca ptr, align 8
  store i64 %0, ptr %2, align 8, !tbaa !32
  call void @llvm.lifetime.start.p0(i64 8, ptr %3) #28
  %4 = load i64, ptr %2, align 8, !tbaa !32
  %5 = call ptr @rb_io_get_fptr(i64 noundef %4)
  store ptr %5, ptr %3, align 8, !tbaa !7
  %6 = load ptr, ptr %3, align 8, !tbaa !7
  %7 = getelementptr inbounds nuw %struct.rb_io, ptr %6, i32 0, i32 20
  %8 = load i64, ptr %7, align 8, !tbaa !37
  call void @llvm.lifetime.end.p0(i64 8, ptr %3) #28
  ret i64 %8
}