; Function Attrs: nounwind sspstrong uwtable
define dso_local i64 @rb_io_timeout(i64 noundef %0) #0 {
  %2 = inttoptr i64 %0 to ptr
  %3 = getelementptr inbounds nuw i8, ptr %2, i64 16
  %4 = load ptr, ptr %3, align 8, !tbaa !29
  %.not.i.i = icmp eq ptr %4, null
  br i1 %.not.i.i, label %5, label %rb_io_get_fptr.exit

5:                                                ; preds = %1
  %6 = load i64, ptr @rb_eIOError, align 8, !tbaa !23
  tail call void (i64, ptr, ...) @rb_raise(i64 noundef %6, ptr noundef nonnull @.str.4) #30
  unreachable

rb_io_get_fptr.exit:                              ; preds = %1
  %7 = getelementptr inbounds nuw i8, ptr %4, i64 200
  %8 = load i64, ptr %7, align 8, !tbaa !33
  ret i64 %8
}